; Function Attrs: nofree norecurse nosync nounwind memory(argmem: read) uwtable
define i64 @__cli_strnlen(ptr nocapture noundef readonly %0, i64 noundef %1) local_unnamed_addr #14 {
  %.not8 = icmp eq i64 %1, 0
  br i1 %.not8, label %.critedge, label %.lr.ph

.lr.ph:                                           ; preds = %2, %5
  %.05 = phi i64 [ %6, %5 ], [ 0, %2 ]
  %3 = getelementptr inbounds i8, ptr %0, i64 %.05
  %4 = load i8, ptr %3, align 1
  %.not = icmp eq i8 %4, 0
  br i1 %.not, label %.critedge, label %5

5:                                                ; preds = %.lr.ph
  %6 = add nuw i64 %.05, 1
  %exitcond.not = icmp eq i64 %6, %1
  br i1 %exitcond.not, label %.critedge, label %.lr.ph

.critedge:                                        ; preds = %.lr.ph, %5, %2
  %.0.lcssa = phi i64 [ 0, %2 ], [ %1, %5 ], [ %.05, %.lr.ph ]
  ret i64 %.0.lcssa
}